target datalayout = "e-m:e-p270:32:32-p271:32:32-p272:64:64-i64:64-i128:128-f80:128-n8:16:32:64-S128"
target triple = "x86_64-pc-linux-gnu"

; Function Attrs: nounwind uwtable
define internal zeroext i8 @suspendCount(ptr noundef %0, ptr noundef %1) #0 {
  %3 = alloca i8, align 1
  %4 = alloca ptr, align 8
  %5 = alloca ptr, align 8
  %6 = alloca i32, align 4
  %7 = alloca i32, align 4
  %8 = alloca ptr, align 8
  store ptr %0, ptr %4, align 8
  store ptr %1, ptr %5, align 8
  %9 = call ptr @getEnv()
  %10 = load ptr, ptr %4, align 8
  %11 = call ptr @inStream_readThreadRef(ptr noundef %9, ptr noundef %10)
  store ptr %11, ptr %8, align 8
  %12 = load ptr, ptr %4, align 8
  %13 = call zeroext i16 @inStream_error(ptr noundef %12)
  %14 = icmp ne i16 %13, 0
  br i1 %14, label %15, label %16

15:                                               ; preds = %2
  store i8 1, ptr %3, align 1
  br label %35

16:                                               ; preds = %2
  %17 = load ptr, ptr %8, align 8
  %18 = call zeroext i8 @threadControl_isDebugThread(ptr noundef %17)
  %19 = icmp ne i8 %18, 0
  br i1 %19, label %20, label %22

20:                                               ; preds = %16
  %21 = load ptr, ptr %5, align 8
  call void @outStream_setError(ptr noundef %21, i16 noundef zeroext 10)
  store i8 1, ptr %3, align 1
  br label %35

22:                                               ; preds = %16
  %23 = load ptr, ptr %8, align 8
  %24 = call i32 @threadControl_suspendCount(ptr noundef %23, ptr noundef %7)
  store i32 %24, ptr %6, align 4
  %25 = load i32, ptr %6, align 4
  %26 = icmp ne i32 %25, 0
  br i1 %26, label %27, label %31

27:                                               ; preds = %22
  %28 = load ptr, ptr %5, align 8
  %29 = load i32, ptr %6, align 4
  %30 = call zeroext i16 @map2jdwpError(i32 noundef %29)
  call void @outStream_setError(ptr noundef %28, i16 noundef zeroext %30)
  store i8 1, ptr %3, align 1
  br label %35

31:                                               ; preds = %22
  %32 = load ptr, ptr %5, align 8
  %33 = load i32, ptr %7, align 4
  %34 = call zeroext i16 @outStream_writeInt(ptr noundef %32, i32 noundef %33)
  store i8 1, ptr %3, align 1
  br label %35

35:                                               ; preds = %31, %27, %20, %15
  %36 = load i8, ptr %3, align 1
  ret i8 %36
}