; Function Attrs: nounwind uwtable
define internal noundef zeroext i8 @suspendCount(ptr noundef %0, ptr noundef %1) #0 {
  %3 = alloca i32, align 4
  %4 = tail call ptr @getEnv() #4
  %5 = tail call ptr @inStream_readThreadRef(ptr noundef %4, ptr noundef %0) #4
  %6 = tail call zeroext i16 @inStream_error(ptr noundef %0) #4
  %.not = icmp eq i16 %6, 0
  br i1 %.not, label %7, label %17

7:                                                ; preds = %2
  %8 = tail call zeroext i8 @threadControl_isDebugThread(ptr noundef %5) #4
  %.not9 = icmp eq i8 %8, 0
  br i1 %.not9, label %10, label %9

9:                                                ; preds = %7
  tail call void @outStream_setError(ptr noundef %1, i16 noundef zeroext 10) #4
  br label %17

10:                                               ; preds = %7
  %11 = call i32 @threadControl_suspendCount(ptr noundef %5, ptr noundef nonnull %3) #4
  %.not10 = icmp eq i32 %11, 0
  br i1 %.not10, label %14, label %12

12:                                               ; preds = %10
  %13 = call zeroext i16 @map2jdwpError(i32 noundef %11) #4
  call void @outStream_setError(ptr noundef %1, i16 noundef zeroext %13) #4
  br label %17

14:                                               ; preds = %10
  %15 = load i32, ptr %3, align 4
  %16 = call zeroext i16 @outStream_writeInt(ptr noundef %1, i32 noundef %15) #4
  br label %17

17:                                               ; preds = %2, %14, %12, %9
  ret i8 1
}